target datalayout = "e-m:e-p270:32:32-p271:32:32-p272:64:64-i64:64-i128:128-f80:128-n8:16:32:64-S128"
target triple = "x86_64-pc-linux-gnu"

%struct.SDL_TimerData = type { %struct.SDL_InitState, ptr, ptr, ptr, [128 x i8], i32, ptr, ptr, ptr, %struct.SDL_AtomicInt, ptr }
%struct.SDL_InitState = type { %struct.SDL_AtomicInt, i64, ptr }
%struct.SDL_AtomicInt = type { i32 }
%struct.SDL_Timer = type { i32, ptr, ptr, ptr, i64, i64, %struct.SDL_AtomicInt, ptr }
%struct.SDL_TimerMap = type { i32, ptr, ptr }

@SDL_timer_data = internal global %struct.SDL_TimerData zeroinitializer, align 8
@.str.1 = private unnamed_addr constant [26 x i8] c"Parameter '%s' is invalid\00", align 1
@.str.5 = private unnamed_addr constant [9 x i8] c"callback\00", align 1

; Function Attrs: nounwind uwtable
define internal zeroext i1 @SDL_CheckInitTimers() #0 {
  %1 = call zeroext i1 @SDL_InitTimers()
  ret i1 %1
}

; Function Attrs: nounwind uwtable
define internal i32 @SDL_CreateTimer(i64 noundef %0, ptr noundef %1, ptr noundef %2, ptr noundef %3) #0 {
  %5 = alloca i32, align 4
  %6 = alloca i64, align 8
  %7 = alloca ptr, align 8
  %8 = alloca ptr, align 8
  %9 = alloca ptr, align 8
  %10 = alloca ptr, align 8
  %11 = alloca ptr, align 8
  %12 = alloca ptr, align 8
  %13 = alloca i32, align 4
  store i64 %0, ptr %6, align 8
  store ptr %1, ptr %7, align 8
  store ptr %2, ptr %8, align 8
  store ptr %3, ptr %9, align 8
  call void @llvm.lifetime.start.p0(i64 8, ptr %10) #3
  store ptr @SDL_timer_data, ptr %10, align 8
  call void @llvm.lifetime.start.p0(i64 8, ptr %11) #3
  call void @llvm.lifetime.start.p0(i64 8, ptr %12) #3
  %14 = load ptr, ptr %7, align 8
  %15 = icmp ne ptr %14, null
  br i1 %15, label %21, label %16

16:                                               ; preds = %4
  %17 = load ptr, ptr %8, align 8
  %18 = icmp ne ptr %17, null
  br i1 %18, label %21, label %19

19:                                               ; preds = %16
  %20 = call zeroext i1 (ptr, ...) @SDL_SetError_REAL(ptr noundef @.str.1, ptr noundef @.str.5)
  store i32 0, ptr %5, align 4
  store i32 1, ptr %13, align 4
  br label %126

21:                                               ; preds = %16, %4
  %22 = call zeroext i1 @SDL_CheckInitTimers()
  br i1 %22, label %24, label %23

23:                                               ; preds = %21
  store i32 0, ptr %5, align 4
  store i32 1, ptr %13, align 4
  br label %126

24:                                               ; preds = %21
  %25 = load ptr, ptr %10, align 8
  %26 = getelementptr inbounds nuw %struct.SDL_TimerData, ptr %25, i32 0, i32 5
  call void @SDL_LockSpinlock_REAL(ptr noundef %26)
  %27 = load ptr, ptr %10, align 8
  %28 = getelementptr inbounds nuw %struct.SDL_TimerData, ptr %27, i32 0, i32 8
  %29 = load ptr, ptr %28, align 8
  store ptr %29, ptr %11, align 8
  %30 = load ptr, ptr %11, align 8
  %31 = icmp ne ptr %30, null
  br i1 %31, label %32, label %38

32:                                               ; preds = %24
  %33 = load ptr, ptr %11, align 8
  %34 = getelementptr inbounds nuw %struct.SDL_Timer, ptr %33, i32 0, i32 7
  %35 = load ptr, ptr %34, align 8
  %36 = load ptr, ptr %10, align 8
  %37 = getelementptr inbounds nuw %struct.SDL_TimerData, ptr %36, i32 0, i32 8
  store ptr %35, ptr %37, align 8
  br label %38

38:                                               ; preds = %32, %24
  %39 = load ptr, ptr %10, align 8
  %40 = getelementptr inbounds nuw %struct.SDL_TimerData, ptr %39, i32 0, i32 5
  call void @SDL_UnlockSpinlock_REAL(ptr noundef %40)
  %41 = load ptr, ptr %11, align 8
  %42 = icmp ne ptr %41, null
  br i1 %42, label %43, label %48

43:                                               ; preds = %38
  %44 = load ptr, ptr %11, align 8
  %45 = getelementptr inbounds nuw %struct.SDL_Timer, ptr %44, i32 0, i32 0
  %46 = load i32, ptr %45, align 8
  %47 = call zeroext i1 @SDL_RemoveTimer_REAL(i32 noundef %46)
  br label %54

48:                                               ; preds = %38
  %49 = call noalias ptr @SDL_malloc_REAL(i64 noundef 64)
  store ptr %49, ptr %11, align 8
  %50 = load ptr, ptr %11, align 8
  %51 = icmp ne ptr %50, null
  br i1 %51, label %53, label %52

52:                                               ; preds = %48
  store i32 0, ptr %5, align 4
  store i32 1, ptr %13, align 4
  br label %126

53:                                               ; preds = %48
  br label %54

54:                                               ; preds = %53, %43
  %55 = call i32 @SDL_GetNextObjectID()
  %56 = load ptr, ptr %11, align 8
  %57 = getelementptr inbounds nuw %struct.SDL_Timer, ptr %56, i32 0, i32 0
  store i32 %55, ptr %57, align 8
  %58 = load ptr, ptr %7, align 8
  %59 = load ptr, ptr %11, align 8
  %60 = getelementptr inbounds nuw %struct.SDL_Timer, ptr %59, i32 0, i32 1
  store ptr %58, ptr %60, align 8
  %61 = load ptr, ptr %8, align 8
  %62 = load ptr, ptr %11, align 8
  %63 = getelementptr inbounds nuw %struct.SDL_Timer, ptr %62, i32 0, i32 2
  store ptr %61, ptr %63, align 8
  %64 = load ptr, ptr %9, align 8
  %65 = load ptr, ptr %11, align 8
  %66 = getelementptr inbounds nuw %struct.SDL_Timer, ptr %65, i32 0, i32 3
  store ptr %64, ptr %66, align 8
  %67 = load i64, ptr %6, align 8
  %68 = load ptr, ptr %11, align 8
  %69 = getelementptr inbounds nuw %struct.SDL_Timer, ptr %68, i32 0, i32 4
  store i64 %67, ptr %69, align 8
  %70 = call i64 @SDL_GetTicksNS_REAL()
  %71 = load ptr, ptr %11, align 8
  %72 = getelementptr inbounds nuw %struct.SDL_Timer, ptr %71, i32 0, i32 4
  %73 = load i64, ptr %72, align 8
  %74 = add i64 %70, %73
  %75 = load ptr, ptr %11, align 8
  %76 = getelementptr inbounds nuw %struct.SDL_Timer, ptr %75, i32 0, i32 5
  store i64 %74, ptr %76, align 8
  %77 = load ptr, ptr %11, align 8
  %78 = getelementptr inbounds nuw %struct.SDL_Timer, ptr %77, i32 0, i32 6
  %79 = call i32 @SDL_SetAtomicInt_REAL(ptr noundef %78, i32 noundef 0)
  %80 = call noalias ptr @SDL_malloc_REAL(i64 noundef 24)
  store ptr %80, ptr %12, align 8
  %81 = load ptr, ptr %12, align 8
  %82 = icmp ne ptr %81, null
  br i1 %82, label %85, label %83

83:                                               ; preds = %54
  %84 = load ptr, ptr %11, align 8
  call void @SDL_free_REAL(ptr noundef %84)
  store i32 0, ptr %5, align 4
  store i32 1, ptr %13, align 4
  br label %126

85:                                               ; preds = %54
  %86 = load ptr, ptr %11, align 8
  %87 = load ptr, ptr %12, align 8
  %88 = getelementptr inbounds nuw %struct.SDL_TimerMap, ptr %87, i32 0, i32 1
  store ptr %86, ptr %88, align 8
  %89 = load ptr, ptr %11, align 8
  %90 = getelementptr inbounds nuw %struct.SDL_Timer, ptr %89, i32 0, i32 0
  %91 = load i32, ptr %90, align 8
  %92 = load ptr, ptr %12, align 8
  %93 = getelementptr inbounds nuw %struct.SDL_TimerMap, ptr %92, i32 0, i32 0
  store i32 %91, ptr %93, align 8
  %94 = load ptr, ptr %10, align 8
  %95 = getelementptr inbounds nuw %struct.SDL_TimerData, ptr %94, i32 0, i32 3
  %96 = load ptr, ptr %95, align 8
  call void @SDL_LockMutex_REAL(ptr noundef %96)
  %97 = load ptr, ptr %10, align 8
  %98 = getelementptr inbounds nuw %struct.SDL_TimerData, ptr %97, i32 0, i32 2
  %99 = load ptr, ptr %98, align 8
  %100 = load ptr, ptr %12, align 8
  %101 = getelementptr inbounds nuw %struct.SDL_TimerMap, ptr %100, i32 0, i32 2
  store ptr %99, ptr %101, align 8
  %102 = load ptr, ptr %12, align 8
  %103 = load ptr, ptr %10, align 8
  %104 = getelementptr inbounds nuw %struct.SDL_TimerData, ptr %103, i32 0, i32 2
  store ptr %102, ptr %104, align 8
  %105 = load ptr, ptr %10, align 8
  %106 = getelementptr inbounds nuw %struct.SDL_TimerData, ptr %105, i32 0, i32 3
  %107 = load ptr, ptr %106, align 8
  call void @SDL_UnlockMutex_REAL(ptr noundef %107)
  %108 = load ptr, ptr %10, align 8
  %109 = getelementptr inbounds nuw %struct.SDL_TimerData, ptr %108, i32 0, i32 5
  call void @SDL_LockSpinlock_REAL(ptr noundef %109)
  %110 = load ptr, ptr %10, align 8
  %111 = getelementptr inbounds nuw %struct.SDL_TimerData, ptr %110, i32 0, i32 7
  %112 = load ptr, ptr %111, align 8
  %113 = load ptr, ptr %11, align 8
  %114 = getelementptr inbounds nuw %struct.SDL_Timer, ptr %113, i32 0, i32 7
  store ptr %112, ptr %114, align 8
  %115 = load ptr, ptr %11, align 8
  %116 = load ptr, ptr %10, align 8
  %117 = getelementptr inbounds nuw %struct.SDL_TimerData, ptr %116, i32 0, i32 7
  store ptr %115, ptr %117, align 8
  %118 = load ptr, ptr %10, align 8
  %119 = getelementptr inbounds nuw %struct.SDL_TimerData, ptr %118, i32 0, i32 5
  call void @SDL_UnlockSpinlock_REAL(ptr noundef %119)
  %120 = load ptr, ptr %10, align 8
  %121 = getelementptr inbounds nuw %struct.SDL_TimerData, ptr %120, i32 0, i32 6
  %122 = load ptr, ptr %121, align 8
  call void @SDL_SignalSemaphore_REAL(ptr noundef %122)
  %123 = load ptr, ptr %12, align 8
  %124 = getelementptr inbounds nuw %struct.SDL_TimerMap, ptr %123, i32 0, i32 0
  %125 = load i32, ptr %124, align 8
  store i32 %125, ptr %5, align 4
  store i32 1, ptr %13, align 4
  br label %126

126:                                              ; preds = %85, %83, %52, %23, %19
  call void @llvm.lifetime.end.p0(i64 8, ptr %12) #3
  call void @llvm.lifetime.end.p0(i64 8, ptr %11) #3
  call void @llvm.lifetime.end.p0(i64 8, ptr %10) #3
  %127 = load i32, ptr %5, align 4
  ret i32 %127
}