; Function Attrs: nounwind uwtable
define internal fastcc i32 @SDL_CreateTimer(i64 noundef %0, ptr noundef %1, ptr noundef %2, ptr noundef %3) unnamed_addr #0 {
  %5 = icmp ne ptr %1, null
  %6 = icmp ne ptr %2, null
  %or.cond = or i1 %5, %6
  br i1 %or.cond, label %9, label %7

7:                                                ; preds = %4
  %8 = tail call zeroext i1 (ptr, ...) @SDL_SetError_REAL(ptr noundef nonnull @.str.1, ptr noundef nonnull @.str.5) #3
  br label %44

9:                                                ; preds = %4
  %10 = tail call noundef zeroext i1 @SDL_InitTimers()
  br i1 %10, label %11, label %44

11:                                               ; preds = %9
  tail call void @SDL_LockSpinlock_REAL(ptr noundef nonnull getelementptr inbounds nuw (i8, ptr @SDL_timer_data, i64 176)) #3
  %12 = load ptr, ptr getelementptr inbounds nuw (i8, ptr @SDL_timer_data, i64 200), align 8
  %.not = icmp eq ptr %12, null
  br i1 %.not, label %.critedge, label %13

13:                                               ; preds = %11
  %14 = getelementptr inbounds nuw i8, ptr %12, i64 56
  %15 = load ptr, ptr %14, align 8
  store ptr %15, ptr getelementptr inbounds nuw (i8, ptr @SDL_timer_data, i64 200), align 8
  tail call void @SDL_UnlockSpinlock_REAL(ptr noundef nonnull getelementptr inbounds nuw (i8, ptr @SDL_timer_data, i64 176)) #3
  %16 = load i32, ptr %12, align 8
  %17 = tail call zeroext i1 @SDL_RemoveTimer_REAL(i32 noundef %16)
  br label %19

.critedge:                                        ; preds = %11
  tail call void @SDL_UnlockSpinlock_REAL(ptr noundef nonnull getelementptr inbounds nuw (i8, ptr @SDL_timer_data, i64 176)) #3
  %18 = tail call noalias ptr @SDL_malloc_REAL(i64 noundef 64) #3
  %.not48 = icmp eq ptr %18, null
  br i1 %.not48, label %44, label %19

19:                                               ; preds = %.critedge, %13
  %.044 = phi ptr [ %12, %13 ], [ %18, %.critedge ]
  %20 = tail call i32 @SDL_GetNextObjectID() #3
  store i32 %20, ptr %.044, align 8
  %21 = getelementptr inbounds nuw i8, ptr %.044, i64 8
  store ptr %1, ptr %21, align 8
  %22 = getelementptr inbounds nuw i8, ptr %.044, i64 16
  store ptr %2, ptr %22, align 8
  %23 = getelementptr inbounds nuw i8, ptr %.044, i64 24
  store ptr %3, ptr %23, align 8
  %24 = getelementptr inbounds nuw i8, ptr %.044, i64 32
  store i64 %0, ptr %24, align 8
  %25 = tail call i64 @SDL_GetTicksNS_REAL()
  %26 = load i64, ptr %24, align 8
  %27 = add i64 %26, %25
  %28 = getelementptr inbounds nuw i8, ptr %.044, i64 40
  store i64 %27, ptr %28, align 8
  %29 = getelementptr inbounds nuw i8, ptr %.044, i64 48
  %30 = tail call i32 @SDL_SetAtomicInt_REAL(ptr noundef nonnull %29, i32 noundef 0) #3
  %31 = tail call noalias ptr @SDL_malloc_REAL(i64 noundef 24) #3
  %.not49 = icmp eq ptr %31, null
  br i1 %.not49, label %32, label %33

32:                                               ; preds = %19
  tail call void @SDL_free_REAL(ptr noundef nonnull %.044) #3
  br label %44

33:                                               ; preds = %19
  %34 = getelementptr inbounds nuw i8, ptr %31, i64 8
  store ptr %.044, ptr %34, align 8
  %35 = load i32, ptr %.044, align 8
  store i32 %35, ptr %31, align 8
  %36 = load ptr, ptr getelementptr inbounds nuw (i8, ptr @SDL_timer_data, i64 40), align 8
  tail call void @SDL_LockMutex_REAL(ptr noundef %36) #3
  %37 = load ptr, ptr getelementptr inbounds nuw (i8, ptr @SDL_timer_data, i64 32), align 8
  %38 = getelementptr inbounds nuw i8, ptr %31, i64 16
  store ptr %37, ptr %38, align 8
  store ptr %31, ptr getelementptr inbounds nuw (i8, ptr @SDL_timer_data, i64 32), align 8
  %39 = load ptr, ptr getelementptr inbounds nuw (i8, ptr @SDL_timer_data, i64 40), align 8
  tail call void @SDL_UnlockMutex_REAL(ptr noundef %39) #3
  tail call void @SDL_LockSpinlock_REAL(ptr noundef nonnull getelementptr inbounds nuw (i8, ptr @SDL_timer_data, i64 176)) #3
  %40 = load ptr, ptr getelementptr inbounds nuw (i8, ptr @SDL_timer_data, i64 192), align 8
  %41 = getelementptr inbounds nuw i8, ptr %.044, i64 56
  store ptr %40, ptr %41, align 8
  store ptr %.044, ptr getelementptr inbounds nuw (i8, ptr @SDL_timer_data, i64 192), align 8
  tail call void @SDL_UnlockSpinlock_REAL(ptr noundef nonnull getelementptr inbounds nuw (i8, ptr @SDL_timer_data, i64 176)) #3
  %42 = load ptr, ptr getelementptr inbounds nuw (i8, ptr @SDL_timer_data, i64 184), align 8
  tail call void @SDL_SignalSemaphore_REAL(ptr noundef %42) #3
  %43 = load i32, ptr %31, align 8
  br label %44

44:                                               ; preds = %.critedge, %9, %33, %32, %7
  %.0 = phi i32 [ %43, %33 ], [ 0, %32 ], [ 0, %7 ], [ 0, %9 ], [ 0, %.critedge ]
  ret i32 %.0
}